target datalayout = "e-m:e-p270:32:32-p271:32:32-p272:64:64-i64:64-i128:128-f80:128-n8:16:32:64-S128"
target triple = "x86_64-pc-linux-gnu"

%struct._zval_struct = type { %union._zend_value, %union.anon, %union.anon.3 }
%union._zend_value = type { i64 }
%union.anon = type { i32 }
%union.anon.3 = type { i32 }

; Function Attrs: nounwind uwtable
define hidden i32 @zend_optimizer_eval_unary_op(ptr noundef %0, i8 noundef zeroext %1, ptr noundef %2) #0 {
  %4 = alloca i32, align 4
  %5 = alloca ptr, align 8
  %6 = alloca i8, align 1
  %7 = alloca ptr, align 8
  %8 = alloca ptr, align 8
  %9 = alloca i32, align 4
  store ptr %0, ptr %5, align 8, !tbaa !9
  store i8 %1, ptr %6, align 1, !tbaa !17
  store ptr %2, ptr %7, align 8, !tbaa !9
  call void @llvm.lifetime.start.p0(i64 8, ptr %8) #13
  %10 = load i8, ptr %6, align 1, !tbaa !17
  %11 = zext i8 %10 to i32
  %12 = call ptr @get_unary_op(i32 noundef %11)
  store ptr %12, ptr %8, align 8, !tbaa !28
  %13 = load ptr, ptr %8, align 8, !tbaa !28
  %14 = icmp ne ptr %13, null
  br i1 %14, label %15, label %26

15:                                               ; preds = %3
  %16 = load i8, ptr %6, align 1, !tbaa !17
  %17 = zext i8 %16 to i32
  %18 = load ptr, ptr %7, align 8, !tbaa !9
  %19 = call zeroext i1 @zend_unary_op_produces_error(i32 noundef %17, ptr noundef %18)
  br i1 %19, label %20, label %21

20:                                               ; preds = %15
  store i32 -1, ptr %4, align 4
  store i32 1, ptr %9, align 4
  br label %35

21:                                               ; preds = %15
  %22 = load ptr, ptr %8, align 8, !tbaa !28
  %23 = load ptr, ptr %5, align 8, !tbaa !9
  %24 = load ptr, ptr %7, align 8, !tbaa !9
  %25 = call i32 %22(ptr noundef %23, ptr noundef %24)
  store i32 %25, ptr %4, align 4
  store i32 1, ptr %9, align 4
  br label %35

26:                                               ; preds = %3
  br label %27

27:                                               ; preds = %26
  %28 = load ptr, ptr %7, align 8, !tbaa !9
  %29 = call zeroext i1 @zend_is_true(ptr noundef %28)
  %30 = select i1 %29, i32 3, i32 2
  %31 = load ptr, ptr %5, align 8, !tbaa !9
  %32 = getelementptr inbounds nuw %struct._zval_struct, ptr %31, i32 0, i32 1
  store i32 %30, ptr %32, align 8, !tbaa !17
  br label %33

33:                                               ; preds = %27
  br label %34

34:                                               ; preds = %33
  store i32 0, ptr %4, align 4
  store i32 1, ptr %9, align 4
  br label %35

35:                                               ; preds = %34, %21, %20
  call void @llvm.lifetime.end.p0(i64 8, ptr %8) #13
  %36 = load i32, ptr %4, align 4
  ret i32 %36
}