; Function Attrs: nounwind uwtable
define hidden i32 @zend_optimizer_eval_unary_op(ptr noundef %0, i8 noundef zeroext %1, ptr noundef %2) local_unnamed_addr #0 {
  %4 = zext i8 %1 to i32
  %5 = tail call ptr @get_unary_op(i32 noundef %4) #20
  %.not = icmp eq ptr %5, null
  br i1 %.not, label %10, label %6

6:                                                ; preds = %3
  %7 = tail call zeroext i1 @zend_unary_op_produces_error(i32 noundef %4, ptr noundef %2) #20
  br i1 %7, label %14, label %8

8:                                                ; preds = %6
  %9 = tail call i32 %5(ptr noundef %0, ptr noundef %2) #20
  br label %14

10:                                               ; preds = %3
  %11 = tail call zeroext i1 @zend_is_true(ptr noundef %2) #20
  %12 = select i1 %11, i32 3, i32 2
  %13 = getelementptr inbounds nuw i8, ptr %0, i64 8
  store i32 %12, ptr %13, align 8, !tbaa !20
  br label %14

14:                                               ; preds = %6, %10, %8
  %.0 = phi i32 [ %9, %8 ], [ 0, %10 ], [ -1, %6 ]
  ret i32 %.0
}